target datalayout = "e-m:e-p270:32:32-p271:32:32-p272:64:64-i64:64-i128:128-f80:128-n8:16:32:64-S128"
target triple = "x86_64-pc-linux-gnu"

@.str.169 = private unnamed_addr constant [9 x i8] c"Deleting\00", align 1

; Function Attrs: nounwind uwtable
define internal void @yydestruct(ptr noundef %0, i32 noundef %1, ptr noundef %2, ptr noundef %3, ptr noundef %4, ptr noundef %5, ptr noundef %6, ptr noundef %7) #0 {
  %9 = alloca ptr, align 8
  %10 = alloca i32, align 4
  %11 = alloca ptr, align 8
  %12 = alloca ptr, align 8
  %13 = alloca ptr, align 8
  %14 = alloca ptr, align 8
  %15 = alloca ptr, align 8
  %16 = alloca ptr, align 8
  store ptr %0, ptr %9, align 8, !tbaa !16
  store i32 %1, ptr %10, align 4, !tbaa !18
  store ptr %2, ptr %11, align 8, !tbaa !20
  store ptr %3, ptr %12, align 8, !tbaa !4
  store ptr %4, ptr %13, align 8, !tbaa !8
  store ptr %5, ptr %14, align 8, !tbaa !10
  store ptr %6, ptr %15, align 8, !tbaa !12
  store ptr %7, ptr %16, align 8, !tbaa !14
  %17 = load ptr, ptr %9, align 8, !tbaa !16
  %18 = icmp ne ptr %17, null
  br i1 %18, label %20, label %19

19:                                               ; preds = %8
  store ptr @.str.169, ptr %9, align 8, !tbaa !16
  br label %20

20:                                               ; preds = %19, %8
  %21 = load i32, ptr %10, align 4, !tbaa !18
  switch i32 %21, label %220 [
    i32 4, label %22
    i32 5, label %28
    i32 6, label %34
    i32 7, label %40
    i32 8, label %46
    i32 43, label %52
    i32 72, label %58
    i32 73, label %64
    i32 74, label %70
    i32 75, label %76
    i32 76, label %82
    i32 77, label %88
    i32 78, label %94
    i32 79, label %100
    i32 80, label %106
    i32 81, label %112
    i32 82, label %118
    i32 83, label %124
    i32 84, label %130
    i32 85, label %136
    i32 86, label %142
    i32 87, label %148
    i32 88, label %154
    i32 89, label %160
    i32 90, label %166
    i32 91, label %172
    i32 92, label %178
    i32 93, label %184
    i32 94, label %190
    i32 95, label %196
    i32 96, label %202
    i32 97, label %208
    i32 98, label %214
  ]

22:                                               ; preds = %20
  %23 = load ptr, ptr %11, align 8, !tbaa !20
  %24 = getelementptr inbounds nuw { i64, ptr }, ptr %23, i32 0, i32 0
  %25 = load i64, ptr %24, align 8
  %26 = getelementptr inbounds nuw { i64, ptr }, ptr %23, i32 0, i32 1
  %27 = load ptr, ptr %26, align 8
  call void @jv_free(i64 %25, ptr %27)
  br label %221

28:                                               ; preds = %20
  %29 = load ptr, ptr %11, align 8, !tbaa !20
  %30 = getelementptr inbounds nuw { i64, ptr }, ptr %29, i32 0, i32 0
  %31 = load i64, ptr %30, align 8
  %32 = getelementptr inbounds nuw { i64, ptr }, ptr %29, i32 0, i32 1
  %33 = load ptr, ptr %32, align 8
  call void @jv_free(i64 %31, ptr %33)
  br label %221

34:                                               ; preds = %20
  %35 = load ptr, ptr %11, align 8, !tbaa !20
  %36 = getelementptr inbounds nuw { i64, ptr }, ptr %35, i32 0, i32 0
  %37 = load i64, ptr %36, align 8
  %38 = getelementptr inbounds nuw { i64, ptr }, ptr %35, i32 0, i32 1
  %39 = load ptr, ptr %38, align 8
  call void @jv_free(i64 %37, ptr %39)
  br label %221

40:                                               ; preds = %20
  %41 = load ptr, ptr %11, align 8, !tbaa !20
  %42 = getelementptr inbounds nuw { i64, ptr }, ptr %41, i32 0, i32 0
  %43 = load i64, ptr %42, align 8
  %44 = getelementptr inbounds nuw { i64, ptr }, ptr %41, i32 0, i32 1
  %45 = load ptr, ptr %44, align 8
  call void @jv_free(i64 %43, ptr %45)
  br label %221

46:                                               ; preds = %20
  %47 = load ptr, ptr %11, align 8, !tbaa !20
  %48 = getelementptr inbounds nuw { i64, ptr }, ptr %47, i32 0, i32 0
  %49 = load i64, ptr %48, align 8
  %50 = getelementptr inbounds nuw { i64, ptr }, ptr %47, i32 0, i32 1
  %51 = load ptr, ptr %50, align 8
  call void @jv_free(i64 %49, ptr %51)
  br label %221

52:                                               ; preds = %20
  %53 = load ptr, ptr %11, align 8, !tbaa !20
  %54 = getelementptr inbounds nuw { i64, ptr }, ptr %53, i32 0, i32 0
  %55 = load i64, ptr %54, align 8
  %56 = getelementptr inbounds nuw { i64, ptr }, ptr %53, i32 0, i32 1
  %57 = load ptr, ptr %56, align 8
  call void @jv_free(i64 %55, ptr %57)
  br label %221

58:                                               ; preds = %20
  %59 = load ptr, ptr %11, align 8, !tbaa !20
  %60 = getelementptr inbounds nuw { ptr, ptr }, ptr %59, i32 0, i32 0
  %61 = load ptr, ptr %60, align 8
  %62 = getelementptr inbounds nuw { ptr, ptr }, ptr %59, i32 0, i32 1
  %63 = load ptr, ptr %62, align 8
  call void @block_free(ptr %61, ptr %63)
  br label %221

64:                                               ; preds = %20
  %65 = load ptr, ptr %11, align 8, !tbaa !20
  %66 = getelementptr inbounds nuw { ptr, ptr }, ptr %65, i32 0, i32 0
  %67 = load ptr, ptr %66, align 8
  %68 = getelementptr inbounds nuw { ptr, ptr }, ptr %65, i32 0, i32 1
  %69 = load ptr, ptr %68, align 8
  call void @block_free(ptr %67, ptr %69)
  br label %221

70:                                               ; preds = %20
  %71 = load ptr, ptr %11, align 8, !tbaa !20
  %72 = getelementptr inbounds nuw { ptr, ptr }, ptr %71, i32 0, i32 0
  %73 = load ptr, ptr %72, align 8
  %74 = getelementptr inbounds nuw { ptr, ptr }, ptr %71, i32 0, i32 1
  %75 = load ptr, ptr %74, align 8
  call void @block_free(ptr %73, ptr %75)
  br label %221

76:                                               ; preds = %20
  %77 = load ptr, ptr %11, align 8, !tbaa !20
  %78 = getelementptr inbounds nuw { ptr, ptr }, ptr %77, i32 0, i32 0
  %79 = load ptr, ptr %78, align 8
  %80 = getelementptr inbounds nuw { ptr, ptr }, ptr %77, i32 0, i32 1
  %81 = load ptr, ptr %80, align 8
  call void @block_free(ptr %79, ptr %81)
  br label %221

82:                                               ; preds = %20
  %83 = load ptr, ptr %11, align 8, !tbaa !20
  %84 = getelementptr inbounds nuw { ptr, ptr }, ptr %83, i32 0, i32 0
  %85 = load ptr, ptr %84, align 8
  %86 = getelementptr inbounds nuw { ptr, ptr }, ptr %83, i32 0, i32 1
  %87 = load ptr, ptr %86, align 8
  call void @block_free(ptr %85, ptr %87)
  br label %221

88:                                               ; preds = %20
  %89 = load ptr, ptr %11, align 8, !tbaa !20
  %90 = getelementptr inbounds nuw { ptr, ptr }, ptr %89, i32 0, i32 0
  %91 = load ptr, ptr %90, align 8
  %92 = getelementptr inbounds nuw { ptr, ptr }, ptr %89, i32 0, i32 1
  %93 = load ptr, ptr %92, align 8
  call void @block_free(ptr %91, ptr %93)
  br label %221

94:                                               ; preds = %20
  %95 = load ptr, ptr %11, align 8, !tbaa !20
  %96 = getelementptr inbounds nuw { ptr, ptr }, ptr %95, i32 0, i32 0
  %97 = load ptr, ptr %96, align 8
  %98 = getelementptr inbounds nuw { ptr, ptr }, ptr %95, i32 0, i32 1
  %99 = load ptr, ptr %98, align 8
  call void @block_free(ptr %97, ptr %99)
  br label %221

100:                                              ; preds = %20
  %101 = load ptr, ptr %11, align 8, !tbaa !20
  %102 = getelementptr inbounds nuw { ptr, ptr }, ptr %101, i32 0, i32 0
  %103 = load ptr, ptr %102, align 8
  %104 = getelementptr inbounds nuw { ptr, ptr }, ptr %101, i32 0, i32 1
  %105 = load ptr, ptr %104, align 8
  call void @block_free(ptr %103, ptr %105)
  br label %221

106:                                              ; preds = %20
  %107 = load ptr, ptr %11, align 8, !tbaa !20
  %108 = getelementptr inbounds nuw { ptr, ptr }, ptr %107, i32 0, i32 0
  %109 = load ptr, ptr %108, align 8
  %110 = getelementptr inbounds nuw { ptr, ptr }, ptr %107, i32 0, i32 1
  %111 = load ptr, ptr %110, align 8
  call void @block_free(ptr %109, ptr %111)
  br label %221

112:                                              ; preds = %20
  %113 = load ptr, ptr %11, align 8, !tbaa !20
  %114 = getelementptr inbounds nuw { ptr, ptr }, ptr %113, i32 0, i32 0
  %115 = load ptr, ptr %114, align 8
  %116 = getelementptr inbounds nuw { ptr, ptr }, ptr %113, i32 0, i32 1
  %117 = load ptr, ptr %116, align 8
  call void @block_free(ptr %115, ptr %117)
  br label %221

118:                                              ; preds = %20
  %119 = load ptr, ptr %11, align 8, !tbaa !20
  %120 = getelementptr inbounds nuw { i64, ptr }, ptr %119, i32 0, i32 0
  %121 = load i64, ptr %120, align 8
  %122 = getelementptr inbounds nuw { i64, ptr }, ptr %119, i32 0, i32 1
  %123 = load ptr, ptr %122, align 8
  call void @jv_free(i64 %121, ptr %123)
  br label %221

124:                                              ; preds = %20
  %125 = load ptr, ptr %11, align 8, !tbaa !20
  %126 = getelementptr inbounds nuw { ptr, ptr }, ptr %125, i32 0, i32 0
  %127 = load ptr, ptr %126, align 8
  %128 = getelementptr inbounds nuw { ptr, ptr }, ptr %125, i32 0, i32 1
  %129 = load ptr, ptr %128, align 8
  call void @block_free(ptr %127, ptr %129)
  br label %221

130:                                              ; preds = %20
  %131 = load ptr, ptr %11, align 8, !tbaa !20
  %132 = getelementptr inbounds nuw { ptr, ptr }, ptr %131, i32 0, i32 0
  %133 = load ptr, ptr %132, align 8
  %134 = getelementptr inbounds nuw { ptr, ptr }, ptr %131, i32 0, i32 1
  %135 = load ptr, ptr %134, align 8
  call void @block_free(ptr %133, ptr %135)
  br label %221

136:                                              ; preds = %20
  %137 = load ptr, ptr %11, align 8, !tbaa !20
  %138 = getelementptr inbounds nuw { ptr, ptr }, ptr %137, i32 0, i32 0
  %139 = load ptr, ptr %138, align 8
  %140 = getelementptr inbounds nuw { ptr, ptr }, ptr %137, i32 0, i32 1
  %141 = load ptr, ptr %140, align 8
  call void @block_free(ptr %139, ptr %141)
  br label %221

142:                                              ; preds = %20
  %143 = load ptr, ptr %11, align 8, !tbaa !20
  %144 = getelementptr inbounds nuw { ptr, ptr }, ptr %143, i32 0, i32 0
  %145 = load ptr, ptr %144, align 8
  %146 = getelementptr inbounds nuw { ptr, ptr }, ptr %143, i32 0, i32 1
  %147 = load ptr, ptr %146, align 8
  call void @block_free(ptr %145, ptr %147)
  br label %221

148:                                              ; preds = %20
  %149 = load ptr, ptr %11, align 8, !tbaa !20
  %150 = getelementptr inbounds nuw { ptr, ptr }, ptr %149, i32 0, i32 0
  %151 = load ptr, ptr %150, align 8
  %152 = getelementptr inbounds nuw { ptr, ptr }, ptr %149, i32 0, i32 1
  %153 = load ptr, ptr %152, align 8
  call void @block_free(ptr %151, ptr %153)
  br label %221

154:                                              ; preds = %20
  %155 = load ptr, ptr %11, align 8, !tbaa !20
  %156 = getelementptr inbounds nuw { ptr, ptr }, ptr %155, i32 0, i32 0
  %157 = load ptr, ptr %156, align 8
  %158 = getelementptr inbounds nuw { ptr, ptr }, ptr %155, i32 0, i32 1
  %159 = load ptr, ptr %158, align 8
  call void @block_free(ptr %157, ptr %159)
  br label %221

160:                                              ; preds = %20
  %161 = load ptr, ptr %11, align 8, !tbaa !20
  %162 = getelementptr inbounds nuw { ptr, ptr }, ptr %161, i32 0, i32 0
  %163 = load ptr, ptr %162, align 8
  %164 = getelementptr inbounds nuw { ptr, ptr }, ptr %161, i32 0, i32 1
  %165 = load ptr, ptr %164, align 8
  call void @block_free(ptr %163, ptr %165)
  br label %221

166:                                              ; preds = %20
  %167 = load ptr, ptr %11, align 8, !tbaa !20
  %168 = getelementptr inbounds nuw { ptr, ptr }, ptr %167, i32 0, i32 0
  %169 = load ptr, ptr %168, align 8
  %170 = getelementptr inbounds nuw { ptr, ptr }, ptr %167, i32 0, i32 1
  %171 = load ptr, ptr %170, align 8
  call void @block_free(ptr %169, ptr %171)
  br label %221

172:                                              ; preds = %20
  %173 = load ptr, ptr %11, align 8, !tbaa !20
  %174 = getelementptr inbounds nuw { ptr, ptr }, ptr %173, i32 0, i32 0
  %175 = load ptr, ptr %174, align 8
  %176 = getelementptr inbounds nuw { ptr, ptr }, ptr %173, i32 0, i32 1
  %177 = load ptr, ptr %176, align 8
  call void @block_free(ptr %175, ptr %177)
  br label %221

178:                                              ; preds = %20
  %179 = load ptr, ptr %11, align 8, !tbaa !20
  %180 = getelementptr inbounds nuw { ptr, ptr }, ptr %179, i32 0, i32 0
  %181 = load ptr, ptr %180, align 8
  %182 = getelementptr inbounds nuw { ptr, ptr }, ptr %179, i32 0, i32 1
  %183 = load ptr, ptr %182, align 8
  call void @block_free(ptr %181, ptr %183)
  br label %221

184:                                              ; preds = %20
  %185 = load ptr, ptr %11, align 8, !tbaa !20
  %186 = getelementptr inbounds nuw { ptr, ptr }, ptr %185, i32 0, i32 0
  %187 = load ptr, ptr %186, align 8
  %188 = getelementptr inbounds nuw { ptr, ptr }, ptr %185, i32 0, i32 1
  %189 = load ptr, ptr %188, align 8
  call void @block_free(ptr %187, ptr %189)
  br label %221

190:                                              ; preds = %20
  %191 = load ptr, ptr %11, align 8, !tbaa !20
  %192 = getelementptr inbounds nuw { ptr, ptr }, ptr %191, i32 0, i32 0
  %193 = load ptr, ptr %192, align 8
  %194 = getelementptr inbounds nuw { ptr, ptr }, ptr %191, i32 0, i32 1
  %195 = load ptr, ptr %194, align 8
  call void @block_free(ptr %193, ptr %195)
  br label %221

196:                                              ; preds = %20
  %197 = load ptr, ptr %11, align 8, !tbaa !20
  %198 = getelementptr inbounds nuw { ptr, ptr }, ptr %197, i32 0, i32 0
  %199 = load ptr, ptr %198, align 8
  %200 = getelementptr inbounds nuw { ptr, ptr }, ptr %197, i32 0, i32 1
  %201 = load ptr, ptr %200, align 8
  call void @block_free(ptr %199, ptr %201)
  br label %221

202:                                              ; preds = %20
  %203 = load ptr, ptr %11, align 8, !tbaa !20
  %204 = getelementptr inbounds nuw { i64, ptr }, ptr %203, i32 0, i32 0
  %205 = load i64, ptr %204, align 8
  %206 = getelementptr inbounds nuw { i64, ptr }, ptr %203, i32 0, i32 1
  %207 = load ptr, ptr %206, align 8
  call void @jv_free(i64 %205, ptr %207)
  br label %221

208:                                              ; preds = %20
  %209 = load ptr, ptr %11, align 8, !tbaa !20
  %210 = getelementptr inbounds nuw { ptr, ptr }, ptr %209, i32 0, i32 0
  %211 = load ptr, ptr %210, align 8
  %212 = getelementptr inbounds nuw { ptr, ptr }, ptr %209, i32 0, i32 1
  %213 = load ptr, ptr %212, align 8
  call void @block_free(ptr %211, ptr %213)
  br label %221

214:                                              ; preds = %20
  %215 = load ptr, ptr %11, align 8, !tbaa !20
  %216 = getelementptr inbounds nuw { ptr, ptr }, ptr %215, i32 0, i32 0
  %217 = load ptr, ptr %216, align 8
  %218 = getelementptr inbounds nuw { ptr, ptr }, ptr %215, i32 0, i32 1
  %219 = load ptr, ptr %218, align 8
  call void @block_free(ptr %217, ptr %219)
  br label %221

220:                                              ; preds = %20
  br label %221

221:                                              ; preds = %220, %214, %208, %202, %196, %190, %184, %178, %172, %166, %160, %154, %148, %142, %136, %130, %124, %118, %112, %106, %100, %94, %88, %82, %76, %70, %64, %58, %52, %46, %40, %34, %28, %22
  ret void
}