; Function Attrs: nounwind uwtable
define internal fastcc void @yydestruct(i32 noundef range(i32 -128, 128) %0, ptr noundef nonnull readonly captures(none) %1) unnamed_addr #0 {
  switch i32 %0, label %135 [
    i32 4, label %3
    i32 5, label %7
    i32 6, label %11
    i32 7, label %15
    i32 8, label %19
    i32 43, label %23
    i32 72, label %27
    i32 73, label %31
    i32 74, label %35
    i32 75, label %39
    i32 76, label %43
    i32 77, label %47
    i32 78, label %51
    i32 79, label %55
    i32 80, label %59
    i32 81, label %63
    i32 82, label %67
    i32 83, label %71
    i32 84, label %75
    i32 85, label %79
    i32 86, label %83
    i32 87, label %87
    i32 88, label %91
    i32 89, label %95
    i32 90, label %99
    i32 91, label %103
    i32 92, label %107
    i32 93, label %111
    i32 94, label %115
    i32 95, label %119
    i32 96, label %123
    i32 97, label %127
    i32 98, label %131
  ]

3:                                                ; preds = %2
  %4 = load i64, ptr %1, align 8
  %5 = getelementptr inbounds nuw i8, ptr %1, i64 8
  %6 = load ptr, ptr %5, align 8
  tail call void @jv_free(i64 %4, ptr %6) #10
  br label %135

7:                                                ; preds = %2
  %8 = load i64, ptr %1, align 8
  %9 = getelementptr inbounds nuw i8, ptr %1, i64 8
  %10 = load ptr, ptr %9, align 8
  tail call void @jv_free(i64 %8, ptr %10) #10
  br label %135

11:                                               ; preds = %2
  %12 = load i64, ptr %1, align 8
  %13 = getelementptr inbounds nuw i8, ptr %1, i64 8
  %14 = load ptr, ptr %13, align 8
  tail call void @jv_free(i64 %12, ptr %14) #10
  br label %135

15:                                               ; preds = %2
  %16 = load i64, ptr %1, align 8
  %17 = getelementptr inbounds nuw i8, ptr %1, i64 8
  %18 = load ptr, ptr %17, align 8
  tail call void @jv_free(i64 %16, ptr %18) #10
  br label %135

19:                                               ; preds = %2
  %20 = load i64, ptr %1, align 8
  %21 = getelementptr inbounds nuw i8, ptr %1, i64 8
  %22 = load ptr, ptr %21, align 8
  tail call void @jv_free(i64 %20, ptr %22) #10
  br label %135

23:                                               ; preds = %2
  %24 = load i64, ptr %1, align 8
  %25 = getelementptr inbounds nuw i8, ptr %1, i64 8
  %26 = load ptr, ptr %25, align 8
  tail call void @jv_free(i64 %24, ptr %26) #10
  br label %135

27:                                               ; preds = %2
  %28 = load ptr, ptr %1, align 8
  %29 = getelementptr inbounds nuw i8, ptr %1, i64 8
  %30 = load ptr, ptr %29, align 8
  tail call void @block_free(ptr %28, ptr %30) #10
  br label %135

31:                                               ; preds = %2
  %32 = load ptr, ptr %1, align 8
  %33 = getelementptr inbounds nuw i8, ptr %1, i64 8
  %34 = load ptr, ptr %33, align 8
  tail call void @block_free(ptr %32, ptr %34) #10
  br label %135

35:                                               ; preds = %2
  %36 = load ptr, ptr %1, align 8
  %37 = getelementptr inbounds nuw i8, ptr %1, i64 8
  %38 = load ptr, ptr %37, align 8
  tail call void @block_free(ptr %36, ptr %38) #10
  br label %135

39:                                               ; preds = %2
  %40 = load ptr, ptr %1, align 8
  %41 = getelementptr inbounds nuw i8, ptr %1, i64 8
  %42 = load ptr, ptr %41, align 8
  tail call void @block_free(ptr %40, ptr %42) #10
  br label %135

43:                                               ; preds = %2
  %44 = load ptr, ptr %1, align 8
  %45 = getelementptr inbounds nuw i8, ptr %1, i64 8
  %46 = load ptr, ptr %45, align 8
  tail call void @block_free(ptr %44, ptr %46) #10
  br label %135

47:                                               ; preds = %2
  %48 = load ptr, ptr %1, align 8
  %49 = getelementptr inbounds nuw i8, ptr %1, i64 8
  %50 = load ptr, ptr %49, align 8
  tail call void @block_free(ptr %48, ptr %50) #10
  br label %135

51:                                               ; preds = %2
  %52 = load ptr, ptr %1, align 8
  %53 = getelementptr inbounds nuw i8, ptr %1, i64 8
  %54 = load ptr, ptr %53, align 8
  tail call void @block_free(ptr %52, ptr %54) #10
  br label %135

55:                                               ; preds = %2
  %56 = load ptr, ptr %1, align 8
  %57 = getelementptr inbounds nuw i8, ptr %1, i64 8
  %58 = load ptr, ptr %57, align 8
  tail call void @block_free(ptr %56, ptr %58) #10
  br label %135

59:                                               ; preds = %2
  %60 = load ptr, ptr %1, align 8
  %61 = getelementptr inbounds nuw i8, ptr %1, i64 8
  %62 = load ptr, ptr %61, align 8
  tail call void @block_free(ptr %60, ptr %62) #10
  br label %135

63:                                               ; preds = %2
  %64 = load ptr, ptr %1, align 8
  %65 = getelementptr inbounds nuw i8, ptr %1, i64 8
  %66 = load ptr, ptr %65, align 8
  tail call void @block_free(ptr %64, ptr %66) #10
  br label %135

67:                                               ; preds = %2
  %68 = load i64, ptr %1, align 8
  %69 = getelementptr inbounds nuw i8, ptr %1, i64 8
  %70 = load ptr, ptr %69, align 8
  tail call void @jv_free(i64 %68, ptr %70) #10
  br label %135

71:                                               ; preds = %2
  %72 = load ptr, ptr %1, align 8
  %73 = getelementptr inbounds nuw i8, ptr %1, i64 8
  %74 = load ptr, ptr %73, align 8
  tail call void @block_free(ptr %72, ptr %74) #10
  br label %135

75:                                               ; preds = %2
  %76 = load ptr, ptr %1, align 8
  %77 = getelementptr inbounds nuw i8, ptr %1, i64 8
  %78 = load ptr, ptr %77, align 8
  tail call void @block_free(ptr %76, ptr %78) #10
  br label %135

79:                                               ; preds = %2
  %80 = load ptr, ptr %1, align 8
  %81 = getelementptr inbounds nuw i8, ptr %1, i64 8
  %82 = load ptr, ptr %81, align 8
  tail call void @block_free(ptr %80, ptr %82) #10
  br label %135

83:                                               ; preds = %2
  %84 = load ptr, ptr %1, align 8
  %85 = getelementptr inbounds nuw i8, ptr %1, i64 8
  %86 = load ptr, ptr %85, align 8
  tail call void @block_free(ptr %84, ptr %86) #10
  br label %135

87:                                               ; preds = %2
  %88 = load ptr, ptr %1, align 8
  %89 = getelementptr inbounds nuw i8, ptr %1, i64 8
  %90 = load ptr, ptr %89, align 8
  tail call void @block_free(ptr %88, ptr %90) #10
  br label %135

91:                                               ; preds = %2
  %92 = load ptr, ptr %1, align 8
  %93 = getelementptr inbounds nuw i8, ptr %1, i64 8
  %94 = load ptr, ptr %93, align 8
  tail call void @block_free(ptr %92, ptr %94) #10
  br label %135

95:                                               ; preds = %2
  %96 = load ptr, ptr %1, align 8
  %97 = getelementptr inbounds nuw i8, ptr %1, i64 8
  %98 = load ptr, ptr %97, align 8
  tail call void @block_free(ptr %96, ptr %98) #10
  br label %135

99:                                               ; preds = %2
  %100 = load ptr, ptr %1, align 8
  %101 = getelementptr inbounds nuw i8, ptr %1, i64 8
  %102 = load ptr, ptr %101, align 8
  tail call void @block_free(ptr %100, ptr %102) #10
  br label %135

103:                                              ; preds = %2
  %104 = load ptr, ptr %1, align 8
  %105 = getelementptr inbounds nuw i8, ptr %1, i64 8
  %106 = load ptr, ptr %105, align 8
  tail call void @block_free(ptr %104, ptr %106) #10
  br label %135

107:                                              ; preds = %2
  %108 = load ptr, ptr %1, align 8
  %109 = getelementptr inbounds nuw i8, ptr %1, i64 8
  %110 = load ptr, ptr %109, align 8
  tail call void @block_free(ptr %108, ptr %110) #10
  br label %135

111:                                              ; preds = %2
  %112 = load ptr, ptr %1, align 8
  %113 = getelementptr inbounds nuw i8, ptr %1, i64 8
  %114 = load ptr, ptr %113, align 8
  tail call void @block_free(ptr %112, ptr %114) #10
  br label %135

115:                                              ; preds = %2
  %116 = load ptr, ptr %1, align 8
  %117 = getelementptr inbounds nuw i8, ptr %1, i64 8
  %118 = load ptr, ptr %117, align 8
  tail call void @block_free(ptr %116, ptr %118) #10
  br label %135

119:                                              ; preds = %2
  %120 = load ptr, ptr %1, align 8
  %121 = getelementptr inbounds nuw i8, ptr %1, i64 8
  %122 = load ptr, ptr %121, align 8
  tail call void @block_free(ptr %120, ptr %122) #10
  br label %135

123:                                              ; preds = %2
  %124 = load i64, ptr %1, align 8
  %125 = getelementptr inbounds nuw i8, ptr %1, i64 8
  %126 = load ptr, ptr %125, align 8
  tail call void @jv_free(i64 %124, ptr %126) #10
  br label %135

127:                                              ; preds = %2
  %128 = load ptr, ptr %1, align 8
  %129 = getelementptr inbounds nuw i8, ptr %1, i64 8
  %130 = load ptr, ptr %129, align 8
  tail call void @block_free(ptr %128, ptr %130) #10
  br label %135

131:                                              ; preds = %2
  %132 = load ptr, ptr %1, align 8
  %133 = getelementptr inbounds nuw i8, ptr %1, i64 8
  %134 = load ptr, ptr %133, align 8
  tail call void @block_free(ptr %132, ptr %134) #10
  br label %135

135:                                              ; preds = %2, %131, %127, %123, %119, %115, %111, %107, %103, %99, %95, %91, %87, %83, %79, %75, %71, %67, %63, %59, %55, %51, %47, %43, %39, %35, %31, %27, %23, %19, %15, %11, %7, %3
  ret void
}